; Function Attrs: nofree norecurse nosync nounwind memory(read, inaccessiblemem: none) uwtable
define double @OSQPVectorf_dot_prod(ptr nocapture noundef readonly %0, ptr nocapture noundef readonly %1) local_unnamed_addr #0 {
  %3 = getelementptr inbounds i8, ptr %0, i64 8
  %4 = load i64, ptr %3, align 8
  %5 = load ptr, ptr %0, align 8
  %6 = load ptr, ptr %1, align 8
  %7 = icmp sgt i64 %4, 0
  br i1 %7, label %.lr.ph, label %._crit_edge

.lr.ph:                                           ; preds = %2, %.lr.ph
  %.013 = phi double [ %12, %.lr.ph ], [ 0.000000e+00, %2 ]
  %.01112 = phi i64 [ %13, %.lr.ph ], [ 0, %2 ]
  %8 = getelementptr inbounds double, ptr %5, i64 %.01112
  %9 = load double, ptr %8, align 8
  %10 = getelementptr inbounds double, ptr %6, i64 %.01112
  %11 = load double, ptr %10, align 8
  %12 = tail call double @llvm.fmuladd.f64(double %9, double %11, double %.013)
  %13 = add nuw nsw i64 %.01112, 1
  %exitcond.not = icmp eq i64 %13, %4
  br i1 %exitcond.not, label %._crit_edge, label %.lr.ph, !llvm.loop !31

._crit_edge:                                      ; preds = %.lr.ph, %2
  %.0.lcssa = phi double [ 0.000000e+00, %2 ], [ %12, %.lr.ph ]
  ret double %.0.lcssa
}